(lp0
S'10001.txt'
p1
aS'10002-8.txt'
p2
aS'10003.txt'
p3
aS'10004-8.txt'
p4
aS'10004.txt'
p5
aS'10005-8.txt'
p6
aS'10005.txt'
p7
aS'10006-8.txt'
p8
aS'10006.txt'
p9
aS'10007-8.txt'
p10
aS'10008-8.txt'
p11
aS'10009.txt'
p12
aS'10010.txt'
p13
aS'10011-8.txt'
p14
aS'10011.txt'
p15
aS'10012-8.txt'
p16
aS'10012.txt'
p17
aS'10013-8.txt'
p18
aS'10013.txt'
p19
aS'10014-8.txt'
p20
aS'10014.txt'
p21
aS'10015.txt'
p22
aS'10016-8.txt'
p23
aS'10016.txt'
p24
aS'10017-8.txt'
p25
aS'10017.txt'
p26
aS'10018-8.txt'
p27
aS'10018.txt'
p28
aS'10019-8.txt'
p29
aS'10019.txt'
p30
aS'10020-8.txt'
p31
aS'10020.txt'
p32
aS'10021-8.txt'
p33
aS'10021.txt'
p34
aS'10022.txt'
p35
aS'10023.txt'
p36
aS'10024-8.txt'
p37
aS'10024.txt'
p38
aS'10025-8.txt'
p39
aS'10025.txt'
p40
aS'10026-8.txt'
p41
aS'10026.txt'
p42
aS'10027.txt'
p43
aS'10028.txt'
p44
aS'10029-8.txt'
p45
aS'101.txt'
p46
aS'10100-8.txt'
p47
aS'10100.txt'
p48
aS'10101.txt'
p49
aS'10102-8.txt'
p50
aS'10102.txt'
p51
aS'10103-8.txt'
p52
aS'10103.txt'
p53
aS'10104-8.txt'
p54
aS'10104.txt'
p55
aS'10105-8.txt'
p56
aS'10105.txt'
p57
aS'10106-8.txt'
p58
aS'10106.txt'
p59
aS'10107-8.txt'
p60
aS'10107.txt'
p61
aS'10108.txt'
p62
aS'10109.txt'
p63
aS'10110-8.txt'
p64
aS'10110.txt'
p65
aS'10111-8.txt'
p66
aS'10111.txt'
p67
aS'10112-8.txt'
p68
aS'10112.txt'
p69
aS'10113-8.txt'
p70
aS'10113.txt'
p71
aS'10114-8.txt'
p72
aS'10114.txt'
p73
aS'10116.txt'
p74
aS'10117-8.txt'
p75
aS'10118-8.txt'
p76
aS'10118.txt'
p77
aS'10119-8.txt'
p78
aS'10119.txt'
p79
aS'10120-8.txt'
p80
aS'10120.txt'
p81
aS'10121-8.txt'
p82
aS'10121.txt'
p83
aS'10122-8.txt'
p84
aS'10122.txt'
p85
aS'10123.txt'
p86
aS'10124-8.txt'
p87
aS'10124.txt'
p88
aS'10125-8.txt'
p89
aS'10125.txt'
p90
aS'10126.txt'
p91
aS'10127-8.txt'
p92
aS'10127.txt'
p93
aS'10128-8.txt'
p94
aS'10128.txt'
p95
aS'10129-8.txt'
p96
aS'10129.txt'
p97
aS'102.txt'
p98
aS'10201-8.txt'
p99
aS'10201.txt'
p100
aS'10202-8.txt'
p101
aS'10202.txt'
p102
aS'10210-8.txt'
p103
aS'10210.txt'
p104
aS'10211.txt'
p105
aS'10212.txt'
p106
aS'10213-8.txt'
p107
aS'10213.txt'
p108
aS'10214-8.txt'
p109
aS'10214.txt'
p110
aS'10215-8.txt'
p111
aS'10215.txt'
p112
aS'10216.txt'
p113
aS'10217-8.txt'
p114
aS'10217.txt'
p115
aS'10218-8.txt'
p116
aS'10218.txt'
p117
aS'10219-8.txt'
p118
aS'10219.txt'
p119
aS'10220.txt'
p120
aS'10221.txt'
p121
aS'10222-8.txt'
p122
aS'10222.txt'
p123
aS'10223-0.txt'
p124
aS'10223-8.txt'
p125
aS'10224.txt'
p126
aS'10225-8.txt'
p127
aS'10225.txt'
p128
aS'10226.txt'
p129
aS'103.txt'
p130
aS'10310.txt'
p131
aS'10314-8.txt'
p132
aS'10314.txt'
p133
aS'10315-8.txt'
p134
aS'10315.txt'
p135
aS'10316.txt'
p136
aS'10317-8.txt'
p137
aS'10317.txt'
p138
aS'10318-8.txt'
p139
aS'10319.txt'
p140
aS'10320.txt'
p141
aS'10321-8.txt'
p142
aS'10321.txt'
p143
aS'10322-8.txt'
p144
aS'10322.txt'
p145
aS'10323.txt'
p146
aS'10324.txt'
p147
aS'10325.txt'
p148
aS'10326.txt'
p149
aS'10327-8.txt'
p150
aS'10327.txt'
p151
aS'10328-8.txt'
p152
aS'10328.txt'
p153
aS'10329.txt'
p154
aS'104.txt'
p155
aS'10400-8.txt'
p156
aS'10400.txt'
p157
aS'10401-8.txt'
p158
aS'10401.txt'
p159
aS'10402-8.txt'
p160
aS'10402.txt'
p161
aS'10403-8.txt'
p162
aS'10403.txt'
p163
aS'10404-8.txt'
p164
aS'10404.txt'
p165
aS'10409-8.txt'
p166
aS'10409.txt'
p167
aS'10410-8.txt'
p168
aS'10410.txt'
p169
aS'10417-8.txt'
p170
aS'10417.txt'
p171
aS'10418-8.txt'
p172
aS'10418.txt'
p173
aS'10419-8.txt'
p174
aS'10419.txt'
p175
aS'10420.txt'
p176
aS'10421.txt'
p177
aS'10422.txt'
p178
aS'10425-8.txt'
p179
aS'10425.txt'
p180
aS'10426-8.txt'
p181
aS'10426.txt'
p182
aS'10427.txt'
p183
aS'10428-8.txt'
p184
aS'10428.txt'
p185
aS'10429-8.txt'
p186
aS'10429.txt'
p187
aS'105.txt'
p188
aS'10500.txt'
p189
aS'10501.txt'
p190
aS'10502-8.txt'
p191
aS'10502.txt'
p192
aS'10503.txt'
p193
aS'10504.txt'
p194
aS'10505.txt'
p195
aS'10506-8.txt'
p196
aS'10506.txt'
p197
aS'10507-8.txt'
p198
aS'10508.txt'
p199
aS'10509.txt'
p200
aS'10510.txt'
p201
aS'10511-8.txt'
p202
aS'10512-8.txt'
p203
aS'10513.txt'
p204
aS'10514-8.txt'
p205
aS'10514.txt'
p206
aS'10515-8.txt'
p207
aS'10515.txt'
p208
aS'10516-8.txt'
p209
aS'10516.txt'
p210
aS'10517.txt'
p211
aS'10518-8.txt'
p212
aS'10518.txt'
p213
aS'10519.txt'
p214
aS'10520.txt'
p215
aS'10521-8.txt'
p216
aS'10522-8.txt'
p217
aS'10522.txt'
p218
aS'10523-8.txt'
p219
aS'10523.txt'
p220
aS'10524.txt'
p221
aS'10525.txt'
p222
aS'10526.txt'
p223
aS'10527.txt'
p224
aS'10528.txt'
p225
aS'10529.txt'
p226
aS'106.txt'
p227
aS'10600-8.txt'
p228
aS'10601.txt'
p229
aS'10602-8.txt'
p230
aS'10602.txt'
p231
aS'10603-8.txt'
p232
aS'10603.txt'
p233
aS'10604-8.txt'
p234
aS'10605-8.txt'
p235
aS'10606.txt'
p236
aS'10607.txt'
p237
aS'10608-8.txt'
p238
aS'10608.txt'
p239
aS'10609-8.txt'
p240
aS'10609.txt'
p241
aS'10610-8.txt'
p242
aS'10610.txt'
p243
aS'10611-8.txt'
p244
aS'10611.txt'
p245
aS'10612-8.txt'
p246
aS'10612.txt'
p247
aS'10613-8.txt'
p248
aS'10613.txt'
p249
aS'10614-8.txt'
p250
aS'10614.txt'
p251
aS'10615.txt'
p252
aS'10616.txt'
p253
aS'10617.txt'
p254
aS'10618.txt'
p255
aS'10619-8.txt'
p256
aS'10619.txt'
p257
aS'10620-8.txt'
p258
aS'10620.txt'
p259
aS'10621-8.txt'
p260
aS'10621.txt'
p261
aS'10622-8.txt'
p262
aS'10622.txt'
p263
aS'10623-8.txt'
p264
aS'10623.txt'
p265
aS'10624-8.txt'
p266
aS'10624.txt'
p267
aS'10625-0.txt'
p268
aS'10625-8.txt'
p269
aS'10626-8.txt'
p270
aS'10627-8.txt'
p271
aS'10627.txt'
p272
aS'10628.txt'
p273
aS'10629-8.txt'
p274
aS'10629.txt'
p275
aS'107-8.txt'
p276
aS'10700-8.txt'
p277
aS'10700.txt'
p278
aS'10701.txt'
p279
aS'10702.txt'
p280
aS'10703.txt'
p281
aS'10704.txt'
p282
aS'10705.txt'
p283
aS'10706.txt'
p284
aS'10707-8.txt'
p285
aS'10707.txt'
p286
aS'10708-8.txt'
p287
aS'10709-8.txt'
p288
aS'10709.txt'
p289
aS'10710-8.txt'
p290
aS'10710.txt'
p291
aS'10711-8.txt'
p292
aS'10711.txt'
p293
aS'10712.txt'
p294
aS'10713-8.txt'
p295
aS'10714-8.txt'
p296
aS'10714.txt'
p297
aS'10715-8.txt'
p298
aS'10715.txt'
p299
aS'10716-8.txt'
p300
aS'10716.txt'
p301
aS'10717-8.txt'
p302
aS'10717.txt'
p303
aS'10718-8.txt'
p304
aS'10718.txt'
p305
aS'10719-8.txt'
p306
aS'10719.txt'
p307
aS'10720.txt'
p308
aS'10721-8.txt'
p309
aS'10722-8.txt'
p310
aS'10722.txt'
p311
aS'10723.txt'
p312
aS'10724.txt'
p313
aS'10725.txt'
p314
aS'10726-8.txt'
p315
aS'10726.txt'
p316
aS'10727-8.txt'
p317
aS'10727.txt'
p318
aS'10728.txt'
p319
aS'10729.txt'
p320
aS'108.txt'
p321
aS'10800-8.txt'
p322
aS'10800.txt'
p323
aS'10801-8.txt'
p324
aS'10801.txt'
p325
aS'10803-8.txt'
p326
aS'10803.txt'
p327
aS'10804.txt'
p328
aS'10805.txt'
p329
aS'10806-8.txt'
p330
aS'10807-8.txt'
p331
aS'10807.txt'
p332
aS'10808.txt'
p333
aS'10809-8.txt'
p334
aS'10809.txt'
p335
aS'10810-8.txt'
p336
aS'10810.txt'
p337
aS'10811-8.txt'
p338
aS'10811.txt'
p339
aS'10812-8.txt'
p340
aS'10812.txt'
p341
aS'10813-8.txt'
p342
aS'10814-8.txt'
p343
aS'10814.txt'
p344
aS'10815.txt'
p345
aS'10816.txt'
p346
aS'10817.txt'
p347
aS'10818-8.txt'
p348
aS'10818.txt'
p349
aS'10819-8.txt'
p350
aS'10819.txt'
p351
aS'10820-8.txt'
p352
aS'10820.txt'
p353
aS'109.txt'
p354
aS'1097.txt'
p355
aS'1098.txt'
p356
aS'1099.txt'
p357
aS'13500.txt'
p358
aS'13501-8.txt'
p359
aS'13502-8.txt'
p360
aS'13503-8.txt'
p361
aS'13504-8.txt'
p362
aS'13505-8.txt'
p363
aS'13506.txt'
p364
aS'13507-8.txt'
p365
aS'13508-8.txt'
p366
aS'13509-8.txt'
p367
aS'13510.txt'
p368
aS'13511-8.txt'
p369
aS'13512-8.txt'
p370
aS'13513-8.txt'
p371
aS'13514-8.txt'
p372
aS'13515-8.txt'
p373
aS'13516-8.txt'
p374
aS'13517-8.txt'
p375
aS'13518.txt'
p376
aS'13519-8.txt'
p377
aS'13520-8.txt'
p378
aS'13521-8.txt'
p379
aS'13522-8.txt'
p380
aS'13523-8.txt'
p381
aS'13524-8.txt'
p382
aS'13525-8.txt'
p383
aS'13526.txt'
p384
aS'13527-8.txt'
p385
aS'13528.txt'
p386
aS'13529-8.txt'
p387
aS'13530-8.txt'
p388
aS'13531-8.txt'
p389
aS'13532-8.txt'
p390
aS'13533.txt'
p391
aS'13534.txt'
p392
aS'13535.txt'
p393
aS'13536-8.txt'
p394
aS'13537-8.txt'
p395
aS'13538-8.txt'
p396
aS'13539-8.txt'
p397
aS'13540-8.txt'
p398
aS'13541-8.txt'
p399
aS'13542-8.txt'
p400
aS'13543-8.txt'
p401
aS'13544-8.txt'
p402
aS'13545-8.txt'
p403
aS'13546.txt'
p404
aS'13547-8.txt'
p405
aS'13548-8.txt'
p406
aS'13549-8.txt'
p407
aS'13550-8.txt'
p408
aS'13551-8.txt'
p409
aS'13552-8.txt'
p410
aS'13553-8.txt'
p411
aS'13554.txt'
p412
aS'13555-8.txt'
p413
aS'13556-8.txt'
p414
aS'13557-8.txt'
p415
aS'13558-8.txt'
p416
aS'13559.txt'
p417
aS'13560.txt'
p418
aS'13561-8.txt'
p419
aS'13562-8.txt'
p420
aS'13563-8.txt'
p421
aS'13564-8.txt'
p422
aS'13565-8.txt'
p423
aS'13566-8.txt'
p424
aS'13567-8.txt'
p425
aS'13568-8.txt'
p426
aS'13569-8.txt'
p427
aS'13570.txt'
p428
aS'13571-8.txt'
p429
aS'13572-8.txt'
p430
aS'13573-8.txt'
p431
aS'13574.txt'
p432
aS'13575.txt'
p433
aS'13576-8.txt'
p434
aS'13577.txt'
p435
aS'13578-8.txt'
p436
aS'13579-8.txt'
p437
aS'13580-8.txt'
p438
aS'13581-8.txt'
p439
aS'13582-8.txt'
p440
aS'13583.txt'
p441
aS'13584-8.txt'
p442
aS'13585-8.txt'
p443
aS'13586-8.txt'
p444
aS'13587.txt'
p445
aS'13588-8.txt'
p446
aS'13589-8.txt'
p447
aS'13591-8.txt'
p448
aS'13592-0.txt'
p449
aS'13592-8.txt'
p450
aS'13593-8.txt'
p451
aS'13594-8.txt'
p452
aS'13595-8.txt'
p453
aS'13596-8.txt'
p454
aS'13597-8.txt'
p455
aS'13598-8.txt'
p456
aS'13599-8.txt'
p457
aS'austen-emma.txt'
p458
aS'austen-persuasion.txt'
p459
aS'austen-sense.txt'
p460
aS'bible-kjv.txt'
p461
aS'blake-poems.txt'
p462
aS'bryant-stories.txt'
p463
aS'burgess-busterbrown.txt'
p464
aS'carroll-alice.txt'
p465
aS'chesterton-ball.txt'
p466
aS'chesterton-brown.txt'
p467
aS'chesterton-thursday.txt'
p468
aS'doyle-fairies.txt'
p469
aS'edgeworth-parents.txt'
p470
aS'melville-moby_dick.txt'
p471
aS'milton-paradise.txt'
p472
aS'shakespeare-caesar.txt'
p473
aS'shakespeare-hamlet.txt'
p474
aS'shakespeare-macbeth.txt'
p475
aS'various-birds.txt'
p476
aS'whitman-leaves.txt'
p477
a.