(lp0
((dp1
S'last_is_vowel'
p2
I01
sS'last_letter'
p3
Va
p4
sS'last_two_letters'
p5
Vha
p6
sS'first_two_letters'
p7
Vma
p8
sS'female'
p9
tp10
a((dp11
g2
I00
sg3
Vh
p12
sg5
Vah
p13
sg7
Vmy
p14
sg9
tp15
a((dp16
g2
I00
sg3
Vt
p17
sg5
Vtt
p18
sg7
Vch
p19
sg9
tp20
a((dp21
g2
I01
sg3
Vy
p22
sg5
Vey
p23
sg7
Vla
p24
sg9
tp25
a((dp26
g2
I01
sg3
Ve
p27
sg5
Vle
p28
sg7
Vco
p29
sS'male'
p30
tp31
a((dp32
g2
I00
sg3
g17
sg5
Vet
p33
sg7
Vch
p34
sg30
tp35
a((dp36
g2
I01
sg3
g27
sg5
Vse
p37
sg7
Vch
p38
sg9
tp39
a((dp40
g2
I01
sg3
g4
sg5
Via
p41
sg7
Vro
p42
sg9
tp43
a((dp44
g2
I00
sg3
Vv
p45
sg5
Vav
p46
sg7
Vva
p47
sg30
tp48
a((dp49
g2
I01
sg3
g4
sg5
Vja
p50
sg7
Vso
p51
sg9
tp52
a((dp53
g2
I01
sg3
g4
sg5
Vla
p54
sg7
Vma
p55
sg9
tp56
a((dp57
g2
I00
sg3
Vr
p58
sg5
Ver
p59
sg7
Vgo
p60
sg30
tp61
a((dp62
g2
I01
sg3
g4
sg5
Via
p63
sg7
Vst
p64
sg9
tp65
a((dp66
g2
I01
sg3
g22
sg5
Vly
p67
sg7
Vco
p68
sg9
tp69
a((dp70
g2
I01
sg3
g4
sg5
Vra
p71
sg7
Vsa
p72
sg9
tp73
a((dp74
g2
I00
sg3
g58
sg5
Vur
p75
sg7
Vam
p76
sg9
tp77
a((dp78
g2
I00
sg3
g58
sg5
Ver
p79
sg7
Vwe
p80
sg30
tp81
a((dp82
g2
I00
sg3
Vn
p83
sg5
Vyn
p84
sg7
Vma
p85
sg9
tp86
a((dp87
g2
I00
sg3
g83
sg5
Van
p88
sg7
Vva
p89
sg30
tp90
a((dp91
g2
I01
sg3
g27
sg5
Vie
p92
sg7
Vis
p93
sg9
tp94
a((dp95
g2
I01
sg3
g4
sg5
Vla
p96
sg7
Vda
p97
sg9
tp98
a((dp99
g2
I01
sg3
g4
sg5
Vna
p100
sg7
Vsh
p101
sg9
tp102
a((dp103
g2
I01
sg3
g27
sg5
Vde
p104
sg7
Ver
p105
sg9
tp106
a((dp107
g2
I01
sg3
Vi
p108
sg5
Vli
p109
sg7
Vjo
p110
sg9
tp111
a((dp112
g2
I01
sg3
g27
sg5
Vne
p113
sg7
Vka
p114
sg9
tp115
a((dp116
g2
I01
sg3
g27
sg5
Vle
p117
sg7
Vma
p118
sg9
tp119
a((dp120
g2
I01
sg3
g27
sg5
Vte
p121
sg7
Vma
p122
sg9
tp123
a((dp124
g2
I00
sg3
Vd
p125
sg5
Vrd
p126
sg7
Vle
p127
sg30
tp128
a((dp129
g2
I00
sg3
g83
sg5
Von
p130
sg7
Vni
p131
sg9
tp132
a((dp133
g2
I00
sg3
g83
sg5
Vin
p134
sg7
Via
p135
sg30
tp136
a((dp137
g2
I00
sg3
g125
sg5
Vad
p138
sg7
Vch
p139
sg30
tp140
a((dp141
g2
I01
sg3
g22
sg5
Vpy
p142
sg7
Vpo
p143
sg9
tp144
a((dp145
g2
I00
sg3
g58
sg5
Ver
p146
sg7
Vta
p147
sg30
tp148
a((dp149
g2
I01
sg3
g22
sg5
Vey
p150
sg7
Vko
p151
sg9
tp152
a((dp153
g2
I01
sg3
g4
sg5
Vra
p154
sg7
Vza
p155
sg9
tp156
a((dp157
g2
I01
sg3
g27
sg5
Vie
p158
sg7
Vma
p159
sg9
tp160
a((dp161
g2
I01
sg3
g22
sg5
Vly
p162
sg7
Vas
p163
sg9
tp164
a((dp165
g2
I01
sg3
Vo
p166
sg5
Vro
p167
sg7
Vsp
p168
sg30
tp169
a((dp170
g2
I01
sg3
g22
sg5
Vny
p171
sg7
Vla
p172
sg9
tp173
a((dp174
g2
I01
sg3
g4
sg5
Vda
p175
sg7
Vze
p176
sg9
tp177
a((dp178
g2
I01
sg3
g27
sg5
Vne
p179
sg7
Vsu
p180
sg9
tp181
a((dp182
g2
I00
sg3
g58
sg5
Ver
p183
sg7
Vgi
p184
sg30
tp185
a((dp186
g2
I01
sg3
g22
sg5
Vey
p187
sg7
Vjo
p188
sg9
tp189
a((dp190
g2
I01
sg3
g22
sg5
Vey
p191
sg7
Vma
p192
sg9
tp193
a((dp194
g2
I01
sg3
g27
sg5
Vre
p195
sg7
Vel
p196
sg9
tp197
a((dp198
g2
I01
sg3
g108
sg5
Vbi
p199
sg7
Vbo
p200
sg9
tp201
a((dp202
g2
I01
sg3
g4
sg5
Vta
p203
sg7
Vni
p204
sg9
tp205
a((dp206
g2
I00
sg3
g125
sg5
Vnd
p207
sg7
Vro
p208
sg30
tp209
a((dp210
g2
I01
sg3
g27
sg5
Vbe
p211
sg7
Vph
p212
sg9
tp213
a((dp214
g2
I01
sg3
g108
sg5
Vli
p215
sg7
Vai
p216
sg9
tp217
a((dp218
g2
I01
sg3
g4
sg5
Vsa
p219
sg7
Vel
p220
sg9
tp221
a((dp222
g2
I01
sg3
g4
sg5
Vha
p223
sg7
Vda
p224
sg9
tp225
a((dp226
g2
I00
sg3
g83
sg5
Vnn
p227
sg7
Vjo
p228
sg9
tp229
a((dp230
g2
I00
sg3
g83
sg5
Vin
p231
sg7
Ver
p232
sg30
tp233
a((dp234
g2
I00
sg3
g58
sg5
Vrr
p235
sg7
Vst
p236
sg9
tp237
a((dp238
g2
I00
sg3
g58
sg5
Var
p239
sg7
Vga
p240
sg30
tp241
a((dp242
g2
I01
sg3
g4
sg5
Vra
p243
sg7
Vin
p244
sg9
tp245
a((dp246
g2
I01
sg3
g4
sg5
Vra
p247
sg7
Vel
p248
sg9
tp249
a((dp250
g2
I01
sg3
g22
sg5
Vay
p251
sg7
Vli
p252
sg9
tp253
a((dp254
g2
I01
sg3
g27
sg5
Vne
p255
sg7
Var
p256
sg9
tp257
a((dp258
g2
I00
sg3
Vs
p259
sg5
Vus
p260
sg7
Van
p261
sg30
tp262
a((dp263
g2
I01
sg3
g27
sg5
Vre
p264
sg7
Val
p265
sg9
tp266
a((dp267
g2
I01
sg3
g4
sg5
Vla
p268
sg7
Vja
p269
sg9
tp270
a((dp271
g2
I00
sg3
Vm
p272
sg5
Vam
p273
sg7
Vli
p274
sg30
tp275
a((dp276
g2
I01
sg3
g27
sg5
Vke
p277
sg7
Vbr
p278
sg9
tp279
a((dp280
g2
I00
sg3
g83
sg5
Vin
p281
sg7
Vjo
p282
sg9
tp283
a((dp284
g2
I01
sg3
g27
sg5
Vse
p285
sg7
Vil
p286
sg9
tp287
a((dp288
g2
I01
sg3
g27
sg5
Vne
p289
sg7
Vmi
p290
sg9
tp291
a((dp292
g2
I01
sg3
g108
sg5
Vdi
p293
sg7
Vdo
p294
sg9
tp295
a((dp296
g2
I00
sg3
g17
sg5
Vyt
p297
sg7
Vwi
p298
sg9
tp299
a((dp300
g2
I00
sg3
Vl
p301
sg5
Val
p302
sg7
Vmi
p303
sg30
tp304
a((dp305
g2
I00
sg3
g83
sg5
Vnn
p306
sg7
Vqu
p307
sg9
tp308
a((dp309
g2
I00
sg3
g125
sg5
Vld
p310
sg7
Vos
p311
sg30
tp312
a((dp313
g2
I01
sg3
g22
sg5
Vey
p314
sg7
Vsh
p315
sg30
tp316
a((dp317
g2
I01
sg3
g4
sg5
Vna
p318
sg7
Vfi
p319
sg9
tp320
a((dp321
g2
I00
sg3
g58
sg5
Ver
p322
sg7
Vbu
p323
sg30
tp324
a((dp325
g2
I01
sg3
g4
sg5
Vna
p326
sg7
Vgo
p327
sg9
tp328
a((dp329
g2
I01
sg3
g27
sg5
Vce
p330
sg7
Vpa
p331
sg9
tp332
a((dp333
g2
I00
sg3
g83
sg5
Vin
p334
sg7
Val
p335
sg30
tp336
a((dp337
g2
I01
sg3
g108
sg5
Vbi
p338
sg7
Vjo
p339
sg9
tp340
a((dp341
g2
I01
sg3
g4
sg5
Vla
p342
sg7
Vag
p343
sg9
tp344
a((dp345
g2
I01
sg3
g27
sg5
Vte
p346
sg7
Vid
p347
sg9
tp348
a((dp349
g2
I01
sg3
g27
sg5
Vne
p350
sg7
Vco
p351
sg9
tp352
a((dp353
g2
I01
sg3
g27
sg5
Vie
p354
sg7
Vma
p355
sg9
tp356
a((dp357
g2
I01
sg3
g108
sg5
Vsi
p358
sg7
Vca
p359
sg9
tp360
a((dp361
g2
I01
sg3
g4
sg5
Vla
p362
sg7
Vma
p363
sg9
tp364
a((dp365
g2
I00
sg3
g12
sg5
Vgh
p366
sg7
Vca
p367
sg30
tp368
a((dp369
g2
I00
sg3
g58
sg5
Ver
p370
sg7
Vje
p371
sg9
tp372
a((dp373
g2
I00
sg3
Vp
p374
sg5
Vpp
p375
sg7
Vph
p376
sg30
tp377
a((dp378
g2
I01
sg3
g22
sg5
Vey
p379
sg7
Vla
p380
sg9
tp381
a((dp382
g2
I01
sg3
g4
sg5
Vla
p383
sg7
Vwi
p384
sg9
tp385
a((dp386
g2
I00
sg3
g17
sg5
Vtt
p387
sg7
Vbr
p388
sg9
tp389
a((dp390
g2
I00
sg3
g125
sg5
Vrd
p391
sg7
Vbe
p392
sg30
tp393
a((dp394
g2
I00
sg3
g272
sg5
Vam
p395
sg7
Vwi
p396
sg30
tp397
a((dp398
g2
I00
sg3
g259
sg5
Vis
p399
sg7
Vma
p400
sg9
tp401
a((dp402
g2
I01
sg3
g166
sg5
Vio
p403
sg7
Vse
p404
sg30
tp405
a((dp406
g2
I01
sg3
g4
sg5
Vta
p407
sg7
Vma
p408
sg9
tp409
a((dp410
g2
I01
sg3
g4
sg5
Vna
p411
sg7
Vkr
p412
sg30
tp413
a((dp414
g2
I00
sg3
g83
sg5
Van
p415
sg7
Vjo
p416
sg30
tp417
a((dp418
g2
I00
sg3
g83
sg5
Vin
p419
sg7
Ver
p420
sg30
tp421
a((dp422
g2
I01
sg3
g22
sg5
Vey
p423
sg7
Vca
p424
sg9
tp425
a((dp426
g2
I01
sg3
g27
sg5
Vne
p427
sg7
Vfa
p428
sg9
tp429
a((dp430
g2
I01
sg3
g22
sg5
Vly
p431
sg7
Vke
p432
sg9
tp433
a((dp434
g2
I01
sg3
g4
sg5
Vma
p435
sg7
Vto
p436
sg9
tp437
a((dp438
g2
I01
sg3
g22
sg5
Vly
p439
sg7
Vel
p440
sg30
tp441
a((dp442
g2
I00
sg3
g259
sg5
Vus
p443
sg7
Vsh
p444
sg30
tp445
a((dp446
g2
I01
sg3
g27
sg5
Vce
p447
sg7
Vmy
p448
sg9
tp449
a((dp450
g2
I01
sg3
g4
sg5
Vsa
p451
sg7
Vma
p452
sg9
tp453
a((dp454
g2
I01
sg3
g4
sg5
Vea
p455
sg7
Vle
p456
sg9
tp457
a((dp458
g2
I00
sg3
g83
sg5
Van
p459
sg7
Vme
p460
sg9
tp461
a((dp462
g2
I01
sg3
g27
sg5
Vne
p463
sg7
Vle
p464
sg9
tp465
a((dp466
g2
I01
sg3
g4
sg5
Vra
p467
sg7
Vau
p468
sg9
tp469
a((dp470
g2
I01
sg3
g27
sg5
Vie
p471
sg7
Vch
p472
sg30
tp473
a((dp474
g2
I01
sg3
g4
sg5
Vla
p475
sg7
Vga
p476
sg9
tp477
a((dp478
g2
I01
sg3
g4
sg5
Vha
p479
sg7
Vsa
p480
sg9
tp481
a((dp482
g2
I01
sg3
g4
sg5
Vda
p483
sg7
Vda
p484
sg9
tp485
a((dp486
g2
I00
sg3
g12
sg5
Vth
p487
sg7
Vja
p488
sg9
tp489
a((dp490
g2
I01
sg3
g4
sg5
Vsa
p491
sg7
Vli
p492
sg9
tp493
a((dp494
g2
I00
sg3
g301
sg5
Vel
p495
sg7
Vda
p496
sg9
tp497
a((dp498
g2
I00
sg3
g301
sg5
Vel
p499
sg7
Vja
p500
sg9
tp501
a((dp502
g2
I00
sg3
g58
sg5
Ver
p503
sg7
Vwe
p504
sg30
tp505
a((dp506
g2
I01
sg3
g27
sg5
Vee
p507
sg7
Vme
p508
sg9
tp509
a((dp510
g2
I01
sg3
g108
sg5
Vki
p511
sg7
Vni
p512
sg30
tp513
a((dp514
g2
I01
sg3
g4
sg5
Vra
p515
sg7
Vis
p516
sg9
tp517
a((dp518
g2
I01
sg3
g27
sg5
Vce
p519
sg7
Vco
p520
sg9
tp521
a((dp522
g2
I01
sg3
g27
sg5
Vie
p523
sg7
Vib
p524
sg9
tp525
a((dp526
g2
I00
sg3
g301
sg5
Vel
p527
sg7
Vli
p528
sg30
tp529
a((dp530
g2
I01
sg3
g108
sg5
Vni
p531
sg7
Vva
p532
sg9
tp533
a((dp534
g2
I01
sg3
g4
sg5
Vya
p535
sg7
Vmo
p536
sg9
tp537
a((dp538
g2
I00
sg3
g58
sg5
Ver
p539
sg7
Vay
p540
sg30
tp541
a((dp542
g2
I00
sg3
g125
sg5
Vrd
p543
sg7
Ved
p544
sg30
tp545
a((dp546
g2
I01
sg3
g108
sg5
Vni
p547
sg7
Vbe
p548
sg9
tp549
a((dp550
g2
I01
sg3
g27
sg5
Vre
p551
sg7
Vsa
p552
sg9
tp553
a((dp554
g2
I01
sg3
g22
sg5
Vey
p555
sg7
Vka
p556
sg9
tp557
a((dp558
g2
I00
sg3
g58
sg5
Ver
p559
sg7
Vgi
p560
sg9
tp561
a((dp562
g2
I01
sg3
g27
sg5
Vne
p563
sg7
Vem
p564
sg9
tp565
a((dp566
g2
I01
sg3
g27
sg5
Vne
p567
sg7
Vla
p568
sg9
tp569
a((dp570
g2
I00
sg3
g259
sg5
Ves
p571
sg7
Vch
p572
sg30
tp573
a((dp574
g2
I01
sg3
g27
sg5
Vee
p575
sg7
Vlo
p576
sg9
tp577
a((dp578
g2
I01
sg3
g27
sg5
Vie
p579
sg7
Vca
p580
sg9
tp581
a((dp582
g2
I00
sg3
g83
sg5
Vnn
p583
sg7
Vka
p584
sg9
tp585
a((dp586
g2
I00
sg3
g12
sg5
Vph
p587
sg7
Vjo
p588
sg30
tp589
a((dp590
g2
I01
sg3
g22
sg5
Vly
p591
sg7
Vha
p592
sg9
tp593
a((dp594
g2
I01
sg3
g27
sg5
Vie
p595
sg7
Vda
p596
sg30
tp597
a((dp598
g2
I00
sg3
g259
sg5
Vks
p599
sg7
Val
p600
sg30
tp601
a((dp602
g2
I00
sg3
g83
sg5
Ven
p603
sg7
Vne
p604
sg30
tp605
a((dp606
g2
I01
sg3
g27
sg5
Vbe
p607
sg7
Vab
p608
sg30
tp609
a((dp610
g2
I01
sg3
g4
sg5
Vra
p611
sg7
Vle
p612
sg9
tp613
a((dp614
g2
I01
sg3
g108
sg5
Vni
p615
sg7
Vna
p616
sg9
tp617
a((dp618
g2
I01
sg3
g4
sg5
Vla
p619
sg7
Vma
p620
sg9
tp621
a((dp622
g2
I00
sg3
g259
sg5
Vus
p623
sg7
Vam
p624
sg30
tp625
a((dp626
g2
I00
sg3
g83
sg5
Vyn
p627
sg7
Vja
p628
sg9
tp629
a((dp630
g2
I01
sg3
g4
sg5
Vea
p631
sg7
Vbr
p632
sg9
tp633
a((dp634
g2
I00
sg3
g301
sg5
Vol
p635
sg7
Vca
p636
sg9
tp637
a((dp638
g2
I00
sg3
g58
sg5
Ver
p639
sg7
Vgo
p640
sg30
tp641
a((dp642
g2
I01
sg3
g4
sg5
Vda
p643
sg7
Vgi
p644
sg9
tp645
a((dp646
g2
I00
sg3
g259
sg5
Vus
p647
sg7
Vru
p648
sg30
tp649
a((dp650
g2
I01
sg3
g4
sg5
Vla
p651
sg7
Vvi
p652
sg9
tp653
a((dp654
g2
I01
sg3
g4
sg5
Vda
p655
sg7
Vro
p656
sg9
tp657
a((dp658
g2
I00
sg3
g17
sg5
Vtt
p659
sg7
Vro
p660
sg9
tp661
a((dp662
g2
I00
sg3
g17
sg5
Vrt
p663
sg7
Vho
p664
sg30
tp665
a((dp666
g2
I01
sg3
g166
sg5
Vto
p667
sg7
Vre
p668
sg30
tp669
a((dp670
g2
I00
sg3
g259
sg5
Vns
p671
sg7
Vro
p672
sg30
tp673
a((dp674
g2
I00
sg3
g259
sg5
Vds
p675
sg7
Vsi
p676
sg30
tp677
a((dp678
g2
I00
sg3
g301
sg5
Vol
p679
sg7
Vde
p680
sg30
tp681
a((dp682
g2
I01
sg3
g22
sg5
Vcy
p683
sg7
Vma
p684
sg9
tp685
a((dp686
g2
I01
sg3
g27
sg5
Vie
p687
sg7
Vva
p688
sg9
tp689
a((dp690
g2
I00
sg3
g125
sg5
Vrd
p691
sg7
Vsi
p692
sg30
tp693
a((dp694
g2
I00
sg3
Vc
p695
sg5
Vic
p696
sg7
Vmi
p697
sg30
tp698
a((dp699
g2
I00
sg3
g12
sg5
Vgh
p700
sg7
Vas
p701
sg9
tp702
a((dp703
g2
I01
sg3
g4
sg5
Vda
p704
sg7
Vam
p705
sg9
tp706
a((dp707
g2
I01
sg3
g4
sg5
Vsa
p708
sg7
Vel
p709
sg9
tp710
a((dp711
g2
I01
sg3
g4
sg5
Vda
p712
sg7
Vod
p713
sg9
tp714
a((dp715
g2
I01
sg3
g4
sg5
Vna
p716
sg7
Vvi
p717
sg9
tp718
a((dp719
g2
I01
sg3
g4
sg5
Vda
p720
sg7
Vse
p721
sg9
tp722
a((dp723
g2
I01
sg3
g4
sg5
Vla
p724
sg7
Vmi
p725
sg9
tp726
a((dp727
g2
I01
sg3
g4
sg5
Via
p728
sg7
Vna
p729
sg9
tp730
a((dp731
g2
I01
sg3
g4
sg5
Vra
p732
sg7
Vka
p733
sg9
tp734
a((dp735
g2
I01
sg3
g27
sg5
Vne
p736
sg7
Vdw
p737
sg30
tp738
a((dp739
g2
I01
sg3
g27
sg5
Vne
p740
sg7
Vra
p741
sg9
tp742
a((dp743
g2
I01
sg3
g22
sg5
Vdy
p744
sg7
Van
p745
sg9
tp746
a((dp747
g2
I01
sg3
g4
sg5
Vla
p748
sg7
Vsa
p749
sg9
tp750
a((dp751
g2
I00
sg3
g301
sg5
Vyl
p752
sg7
Vma
p753
sg9
tp754
a((dp755
g2
I01
sg3
g27
sg5
Vne
p756
sg7
Var
p757
sg30
tp758
a((dp759
g2
I01
sg3
g27
sg5
Vle
p760
sg7
Vmi
p761
sg9
tp762
a((dp763
g2
I01
sg3
g27
sg5
Vie
p764
sg7
Vco
p765
sg9
tp766
a((dp767
g2
I00
sg3
g125
sg5
Vid
p768
sg7
Vha
p769
sg30
tp770
a((dp771
g2
I00
sg3
g83
sg5
Van
p772
sg7
Vtr
p773
sg30
tp774
a((dp775
g2
I01
sg3
g27
sg5
Vle
p776
sg7
Vki
p777
sg9
tp778
a((dp779
g2
I01
sg3
g27
sg5
Vie
p780
sg7
Vgi
p781
sg9
tp782
a((dp783
g2
I01
sg3
g27
sg5
Vne
p784
sg7
Vvi
p785
sg9
tp786
a((dp787
g2
I00
sg3
g301
sg5
Vel
p788
sg7
Vmi
p789
sg30
tp790
a((dp791
g2
I01
sg3
g4
sg5
Vna
p792
sg7
Vha
p793
sg9
tp794
a((dp795
g2
I01
sg3
g27
sg5
Vie
p796
sg7
Vsi
p797
sg9
tp798
a((dp799
g2
I01
sg3
g4
sg5
Vka
p800
sg7
Vfa
p801
sg9
tp802
a((dp803
g2
I00
sg3
g12
sg5
Vth
p804
sg7
Vma
p805
sg9
tp806
a((dp807
g2
I00
sg3
g125
sg5
Vnd
p808
sg7
Vfe
p809
sg30
tp810
a((dp811
g2
I01
sg3
g4
sg5
Vra
p812
sg7
Vor
p813
sg9
tp814
a((dp815
g2
I01
sg3
g27
sg5
Vne
p816
sg7
Vre
p817
sg30
tp818
a((dp819
g2
I00
sg3
g259
sg5
Vas
p820
sg7
Vli
p821
sg9
tp822
a((dp823
g2
I01
sg3
g4
sg5
Vna
p824
sg7
Vun
p825
sg9
tp826
a((dp827
g2
I00
sg3
g272
sg5
Vam
p828
sg7
Vhi
p829
sg30
tp830
a((dp831
g2
I01
sg3
g22
sg5
Vdy
p832
sg7
Vsa
p833
sg9
tp834
a((dp835
g2
I00
sg3
g12
sg5
Vah
p836
sg7
Vle
p837
sg9
tp838
a((dp839
g2
I01
sg3
g4
sg5
Vna
p840
sg7
Vme
p841
sg9
tp842
a((dp843
g2
I00
sg3
g301
sg5
Vll
p844
sg7
Vid
p845
sg9
tp846
a((dp847
g2
I01
sg3
g166
sg5
Vio
p848
sg7
Van
p849
sg30
tp850
a((dp851
g2
I01
sg3
g4
sg5
Vta
p852
sg7
Vca
p853
sg9
tp854
a((dp855
g2
I01
sg3
g4
sg5
Vra
p856
sg7
Vte
p857
sg9
tp858
a((dp859
g2
I00
sg3
g259
sg5
Vas
p860
sg7
Vwa
p861
sg30
tp862
a((dp863
g2
I01
sg3
g22
sg5
Vhy
p864
sg7
Vmu
p865
sg30
tp866
a((dp867
g2
I01
sg3
g27
sg5
Vde
p868
sg7
Vju
p869
sg30
tp870
a((dp871
g2
I00
sg3
Vf
p872
sg5
Vif
p873
sg7
Vle
p874
sg30
tp875
a((dp876
g2
I01
sg3
g4
sg5
Vda
p877
sg7
Vma
p878
sg9
tp879
a((dp880
g2
I01
sg3
g22
sg5
Vey
p881
sg7
Vli
p882
sg9
tp883
a((dp884
g2
I00
sg3
g83
sg5
Vyn
p885
sg7
Vch
p886
sg9
tp887
a((dp888
g2
I00
sg3
g83
sg5
Vin
p889
sg7
Vau
p890
sg9
tp891
a((dp892
g2
I01
sg3
g27
sg5
Vie
p893
sg7
Vje
p894
sg9
tp895
a((dp896
g2
I01
sg3
g27
sg5
Vee
p897
sg7
Vbe
p898
sg9
tp899
a((dp900
g2
I00
sg3
g125
sg5
Vld
p901
sg7
Var
p902
sg30
tp903
a((dp904
g2
I01
sg3
g22
sg5
Vcy
p905
sg7
Vla
p906
sg9
tp907
a((dp908
g2
I01
sg3
g108
sg5
Vri
p909
sg7
Vno
p910
sg9
tp911
a((dp912
g2
I01
sg3
g4
sg5
Vsa
p913
sg7
Vny
p914
sg9
tp915
a((dp916
g2
I01
sg3
g27
sg5
Vne
p917
sg7
Vju
p918
sg9
tp919
a((dp920
g2
I01
sg3
g27
sg5
Vte
p921
sg7
Vro
p922
sg9
tp923
a((dp924
g2
I01
sg3
g27
sg5
Vye
p925
sg7
Vsh
p926
sg9
tp927
a((dp928
g2
I01
sg3
g27
sg5
Vte
p929
sg7
Vor
p930
sg9
tp931
a((dp932
g2
I01
sg3
g166
sg5
Vio
p933
sg7
Vam
p934
sg30
tp935
a((dp936
g2
I01
sg3
g27
sg5
Vie
p937
sg7
Vme
p938
sg9
tp939
a((dp940
g2
I00
sg3
g83
sg5
Von
p941
sg7
Vqu
p942
sg30
tp943
a((dp944
g2
I00
sg3
g695
sg5
Vic
p945
sg7
Vth
p946
sg30
tp947
a((dp948
g2
I00
sg3
g17
sg5
Vet
p949
sg7
Vso
p950
sg30
tp951
a((dp952
g2
I01
sg3
g27
sg5
Vee
p953
sg7
Vem
p954
sg9
tp955
a((dp956
g2
I00
sg3
g125
sg5
Vrd
p957
sg7
Vsa
p958
sg30
tp959
a((dp960
g2
I01
sg3
g27
sg5
Vle
p961
sg7
Vka
p962
sg9
tp963
a((dp964
g2
I01
sg3
g4
sg5
Vna
p965
sg7
Val
p966
sg9
tp967
a((dp968
g2
I01
sg3
g4
sg5
Vna
p969
sg7
Vmo
p970
sg9
tp971
a((dp972
g2
I01
sg3
g27
sg5
Vie
p973
sg7
Vpe
p974
sg9
tp975
a((dp976
g2
I01
sg3
g4
sg5
Vca
p977
sg7
Vre
p978
sg9
tp979
a((dp980
g2
I00
sg3
Vk
p981
sg5
Vik
p982
sg7
Ver
p983
sg30
tp984
a((dp985
g2
I01
sg3
g4
sg5
Vea
p986
sg7
Val
p987
sg9
tp988
a((dp989
g2
I01
sg3
g4
sg5
Vta
p990
sg7
Vge
p991
sg9
tp992
a((dp993
g2
I01
sg3
g27
sg5
Vne
p994
sg7
Vre
p995
sg9
tp996
a((dp997
g2
I01
sg3
g4
sg5
Vna
p998
sg7
Vme
p999
sg9
tp1000
a((dp1001
g2
I00
sg3
g83
sg5
Vin
p1002
sg7
Vgw
p1003
sg9
tp1004
a((dp1005
g2
I01
sg3
g4
sg5
Vha
p1006
sg7
Var
p1007
sg9
tp1008
a((dp1009
g2
I01
sg3
g22
sg5
Vey
p1010
sg7
Vra
p1011
sg30
tp1012
a((dp1013
g2
I01
sg3
g4
sg5
Via
p1014
sg7
Vgo
p1015
sg9
tp1016
a((dp1017
g2
I01
sg3
g4
sg5
Vna
p1018
sg7
Vge
p1019
sg9
tp1020
a((dp1021
g2
I00
sg3
g58
sg5
Vtr
p1022
sg7
Vpy
p1023
sg30
tp1024
a((dp1025
g2
I01
sg3
g27
sg5
Vte
p1026
sg7
Vli
p1027
sg9
tp1028
a((dp1029
g2
I00
sg3
g259
sg5
Vus
p1030
sg7
Vju
p1031
sg30
tp1032
a((dp1033
g2
I00
sg3
g259
sg5
Ves
p1034
sg7
Vdo
p1035
sg9
tp1036
a((dp1037
g2
I01
sg3
g4
sg5
Vsa
p1038
sg7
Vly
p1039
sg9
tp1040
a((dp1041
g2
I01
sg3
g27
sg5
Vle
p1042
sg7
Vro
p1043
sg9
tp1044
a((dp1045
g2
I01
sg3
g4
sg5
Vka
p1046
sg7
Vse
p1047
sg9
tp1048
a((dp1049
g2
I01
sg3
g4
sg5
Via
p1050
sg7
Vma
p1051
sg9
tp1052
a((dp1053
g2
I01
sg3
g27
sg5
Vke
p1054
sg7
Vul
p1055
sg9
tp1056
a((dp1057
g2
I01
sg3
g4
sg5
Vna
p1058
sg7
Vir
p1059
sg9
tp1060
a((dp1061
g2
I01
sg3
g27
sg5
Vne
p1062
sg7
Vka
p1063
sg9
tp1064
a((dp1065
g2
I01
sg3
g22
sg5
Vly
p1066
sg7
Vtu
p1067
sg30
tp1068
a((dp1069
g2
I01
sg3
g4
sg5
Vna
p1070
sg7
Vca
p1071
sg9
tp1072
a((dp1073
g2
I00
sg3
g259
sg5
Ves
p1074
sg7
Vhe
p1075
sg30
tp1076
a((dp1077
g2
I01
sg3
g108
sg5
Vli
p1078
sg7
Vho
p1079
sg9
tp1080
a((dp1081
g2
I01
sg3
g27
sg5
Vle
p1082
sg7
Vda
p1083
sg9
tp1084
a((dp1085
g2
I00
sg3
g12
sg5
Vah
p1086
sg7
Vno
p1087
sg9
tp1088
a((dp1089
g2
I00
sg3
g83
sg5
Vyn
p1090
sg7
Vdo
p1091
sg9
tp1092
a((dp1093
g2
I01
sg3
g4
sg5
Vda
p1094
sg7
Vte
p1095
sg9
tp1096
a((dp1097
g2
I00
sg3
Vw
p1098
sg5
Vow
p1099
sg7
Vwo
p1100
sg30
tp1101
a((dp1102
g2
I01
sg3
g166
sg5
Vco
p1103
sg7
Vni
p1104
sg30
tp1105
a((dp1106
g2
I00
sg3
g301
sg5
Val
p1107
sg7
Vyi
p1108
sg30
tp1109
a((dp1110
g2
I01
sg3
g22
sg5
Vry
p1111
sg7
Vro
p1112
sg9
tp1113
a((dp1114
g2
I00
sg3
g83
sg5
Vnn
p1115
sg7
Vbe
p1116
sg9
tp1117
a((dp1118
g2
I01
sg3
g4
sg5
Vna
p1119
sg7
Vdo
p1120
sg9
tp1121
a((dp1122
g2
I00
sg3
g58
sg5
Var
p1123
sg7
Vst
p1124
sg9
tp1125
a((dp1126
g2
I01
sg3
g27
sg5
Vne
p1127
sg7
Vsh
p1128
sg9
tp1129
a((dp1130
g2
I00
sg3
g301
sg5
Vel
p1131
sg7
Vmi
p1132
sg9
tp1133
a((dp1134
g2
I01
sg3
g4
sg5
Vda
p1135
sg7
Vgi
p1136
sg9
tp1137
a((dp1138
g2
I01
sg3
g166
sg5
Vko
p1139
sg7
Vma
p1140
sg30
tp1141
a((dp1142
g2
I00
sg3
g83
sg5
Van
p1143
sg7
Vse
p1144
sg9
tp1145
a((dp1146
g2
I01
sg3
g27
sg5
Vle
p1147
sg7
Vda
p1148
sg9
tp1149
a((dp1150
g2
I00
sg3
g259
sg5
Vis
p1151
sg7
Vje
p1152
sg30
tp1153
a((dp1154
g2
I01
sg3
g27
sg5
Vle
p1155
sg7
Vsy
p1156
sg9
tp1157
a((dp1158
g2
I01
sg3
g4
sg5
Vna
p1159
sg7
Vtr
p1160
sg9
tp1161
a((dp1162
g2
I01
sg3
g27
sg5
Vie
p1163
sg7
Vma
p1164
sg9
tp1165
a((dp1166
g2
I00
sg3
g58
sg5
Ver
p1167
sg7
Vth
p1168
sg30
tp1169
a((dp1170
g2
I01
sg3
g4
sg5
Vba
p1171
sg7
Vbu
p1172
sg30
tp1173
a((dp1174
g2
I01
sg3
g4
sg5
Vna
p1175
sg7
Vin
p1176
sg9
tp1177
a((dp1178
g2
I00
sg3
g58
sg5
Ver
p1179
sg7
Vhu
p1180
sg30
tp1181
a((dp1182
g2
I00
sg3
g17
sg5
Vnt
p1183
sg7
Vmi
p1184
sg30
tp1185
a((dp1186
g2
I00
sg3
g259
sg5
Vis
p1187
sg7
Vgl
p1188
sg9
tp1189
a((dp1190
g2
I01
sg3
g4
sg5
Via
p1191
sg7
Var
p1192
sg9
tp1193
a((dp1194
g2
I00
sg3
g301
sg5
Vll
p1195
sg7
Vca
p1196
sg9
tp1197
a((dp1198
g2
I00
sg3
g301
sg5
Vll
p1199
sg7
Vav
p1200
sg30
tp1201
a((dp1202
g2
I01
sg3
g4
sg5
Vna
p1203
sg7
Vda
p1204
sg9
tp1205
a((dp1206
g2
I00
sg3
g259
sg5
Ves
p1207
sg7
Vni
p1208
sg30
tp1209
a((dp1210
g2
I00
sg3
g83
sg5
Van
p1211
sg7
Vte
p1212
sg30
tp1213
a((dp1214
g2
I01
sg3
g4
sg5
Vra
p1215
sg7
Vge
p1216
sg9
tp1217
a((dp1218
g2
I00
sg3
g58
sg5
Vor
p1219
sg7
Vhe
p1220
sg30
tp1221
a((dp1222
g2
I01
sg3
g27
sg5
Vce
p1223
sg7
Veu
p1224
sg30
tp1225
a((dp1226
g2
I01
sg3
g4
sg5
Vra
p1227
sg7
Vke
p1228
sg9
tp1229
a((dp1230
g2
I01
sg3
g4
sg5
Vna
p1231
sg7
Vta
p1232
sg9
tp1233
a((dp1234
g2
I01
sg3
g4
sg5
Vna
p1235
sg7
Vge
p1236
sg9
tp1237
a((dp1238
g2
I01
sg3
g27
sg5
Vle
p1239
sg7
Vga
p1240
sg30
tp1241
a((dp1242
g2
I01
sg3
g4
sg5
Vta
p1243
sg7
Vju
p1244
sg30
tp1245
a((dp1246
g2
I00
sg3
g17
sg5
Vet
p1247
sg7
Vga
p1248
sg30
tp1249
a((dp1250
g2
I01
sg3
g27
sg5
Vie
p1251
sg7
Vre
p1252
sg9
tp1253
a((dp1254
g2
I01
sg3
g27
sg5
Vne
p1255
sg7
Vse
p1256
sg9
tp1257
a((dp1258
g2
I01
sg3
g22
sg5
Vny
p1259
sg7
Vle
p1260
sg30
tp1261
a((dp1262
g2
I00
sg3
g259
sg5
Vas
p1263
sg7
Vlu
p1264
sg30
tp1265
a((dp1266
g2
I00
sg3
g981
sg5
Vck
p1267
sg7
Vfr
p1268
sg30
tp1269
a((dp1270
g2
I01
sg3
g166
sg5
Vro
p1271
sg7
Val
p1272
sg30
tp1273
a((dp1274
g2
I01
sg3
g4
sg5
Via
p1275
sg7
Vra
p1276
sg9
tp1277
a((dp1278
g2
I01
sg3
g27
sg5
Vne
p1279
sg7
Vel
p1280
sg9
tp1281
a((dp1282
g2
I01
sg3
g22
sg5
Vdy
p1283
sg7
Vra
p1284
sg9
tp1285
a((dp1286
g2
I00
sg3
g259
sg5
Vas
p1287
sg7
Vba
p1288
sg30
tp1289
a((dp1290
g2
I01
sg3
g4
sg5
Vra
p1291
sg7
Vde
p1292
sg9
tp1293
a((dp1294
g2
I00
sg3
g12
sg5
Vgh
p1295
sg7
Vha
p1296
sg30
tp1297
a((dp1298
g2
I01
sg3
g27
sg5
Vse
p1299
sg7
Van
p1300
sg9
tp1301
a((dp1302
g2
I01
sg3
g22
sg5
Vry
p1303
sg7
Vmo
p1304
sg30
tp1305
a((dp1306
g2
I01
sg3
g108
sg5
Vri
p1307
sg7
Vsh
p1308
sg9
tp1309
a((dp1310
g2
I01
sg3
g27
sg5
Vee
p1311
sg7
Vje
p1312
sg9
tp1313
a((dp1314
g2
I00
sg3
g301
sg5
Vll
p1315
sg7
Vpu
p1316
sg30
tp1317
a((dp1318
g2
I00
sg3
g259
sg5
Vss
p1319
sg7
Vte
p1320
sg9
tp1321
a((dp1322
g2
I01
sg3
g108
sg5
Vli
p1323
sg7
Vbi
p1324
sg9
tp1325
a((dp1326
g2
I01
sg3
g22
sg5
Vey
p1327
sg7
Vbr
p1328
sg9
tp1329
a((dp1330
g2
I01
sg3
g22
sg5
Vey
p1331
sg7
Vha
p1332
sg9
tp1333
a((dp1334
g2
I01
sg3
g4
sg5
Vna
p1335
sg7
Van
p1336
sg9
tp1337
a((dp1338
g2
I00
sg3
g17
sg5
Vrt
p1339
sg7
Vin
p1340
sg30
tp1341
a((dp1342
g2
I00
sg3
g12
sg5
Vah
p1343
sg7
Vab
p1344
sg30
tp1345
a((dp1346
g2
I00
sg3
g83
sg5
Vin
p1347
sg7
Vca
p1348
sg9
tp1349
a((dp1350
g2
I00
sg3
V 
p1351
sg5
Ve 
p1352
sg7
Vga
p1353
sg9
tp1354
a((dp1355
g2
I00
sg3
g58
sg5
Ver
p1356
sg7
Vwi
p1357
sg30
tp1358
a((dp1359
g2
I01
sg3
g27
sg5
Vte
p1360
sg7
Vju
p1361
sg9
tp1362
a((dp1363
g2
I00
sg3
g58
sg5
Ver
p1364
sg7
Vpa
p1365
sg30
tp1366
a((dp1367
g2
I01
sg3
g108
sg5
Vvi
p1368
sg7
Vde
p1369
sg9
tp1370
a((dp1371
g2
I01
sg3
g4
sg5
Vva
p1372
sg7
Vno
p1373
sg9
tp1374
a((dp1375
g2
I01
sg3
g4
sg5
Vta
p1376
sg7
Vni
p1377
sg30
tp1378
a((dp1379
g2
I00
sg3
g83
sg5
Von
p1380
sg7
Vty
p1381
sg30
tp1382
a((dp1383
g2
I01
sg3
g27
sg5
Vne
p1384
sg7
Vte
p1385
sg9
tp1386
a((dp1387
g2
I01
sg3
g27
sg5
Vie
p1388
sg7
Vke
p1389
sg9
tp1390
a((dp1391
g2
I00
sg3
g259
sg5
Ves
p1392
sg7
Vjo
p1393
sg9
tp1394
a((dp1395
g2
I00
sg3
g125
sg5
Vrd
p1396
sg7
Vla
p1397
sg30
tp1398
a((dp1399
g2
I00
sg3
g17
sg5
Vot
p1400
sg7
Vch
p1401
sg30
tp1402
a((dp1403
g2
I00
sg3
g374
sg5
Vrp
p1404
sg7
Vga
p1405
sg30
tp1406
a((dp1407
g2
I00
sg3
g83
sg5
Van
p1408
sg7
Vdo
p1409
sg9
tp1410
a((dp1411
g2
I01
sg3
g4
sg5
Via
p1412
sg7
Ver
p1413
sg9
tp1414
a((dp1415
g2
I01
sg3
g27
sg5
Vge
p1416
sg7
Vge
p1417
sg30
tp1418
a((dp1419
g2
I01
sg3
g27
sg5
Vke
p1420
sg7
Vmy
p1421
sg30
tp1422
a((dp1423
g2
I01
sg3
g4
sg5
Vla
p1424
sg7
Vot
p1425
sg9
tp1426
a((dp1427
g2
I01
sg3
g27
sg5
Vte
p1428
sg7
Vha
p1429
sg9
tp1430
a((dp1431
g2
I00
sg3
g83
sg5
Vin
p1432
sg7
Vka
p1433
sg30
tp1434
a((dp1435
g2
I00
sg3
g58
sg5
Ver
p1436
sg7
Vdi
p1437
sg30
tp1438
a((dp1439
g2
I00
sg3
g259
sg5
Vis
p1440
sg7
Vis
p1441
sg9
tp1442
a((dp1443
g2
I01
sg3
g27
sg5
Vle
p1444
sg7
Vga
p1445
sg9
tp1446
a((dp1447
g2
I01
sg3
g4
sg5
Vla
p1448
sg7
Vsh
p1449
sg9
tp1450
a((dp1451
g2
I01
sg3
g4
sg5
Vna
p1452
sg7
Vkr
p1453
sg9
tp1454
a((dp1455
g2
I00
sg3
g83
sg5
Von
p1456
sg7
Vpe
p1457
sg30
tp1458
a((dp1459
g2
I01
sg3
g27
sg5
Vce
p1460
sg7
Vbr
p1461
sg30
tp1462
a((dp1463
g2
I01
sg3
g22
sg5
Vry
p1464
sg7
Vjo
p1465
sg30
tp1466
a((dp1467
g2
I01
sg3
g22
sg5
Vmy
p1468
sg7
Vsa
p1469
sg9
tp1470
a((dp1471
g2
I01
sg3
g4
sg5
Vca
p1472
sg7
Vmo
p1473
sg9
tp1474
a((dp1475
g2
I01
sg3
g27
sg5
Vle
p1476
sg7
Vab
p1477
sg9
tp1478
a((dp1479
g2
I01
sg3
g4
sg5
Vsa
p1480
sg7
Vne
p1481
sg9
tp1482
a((dp1483
g2
I01
sg3
g27
sg5
Vee
p1484
sg7
Vba
p1485
sg9
tp1486
a((dp1487
g2
I00
sg3
g301
sg5
Vel
p1488
sg7
Vni
p1489
sg30
tp1490
a((dp1491
g2
I01
sg3
g27
sg5
Vne
p1492
sg7
Vna
p1493
sg9
tp1494
a((dp1495
g2
I01
sg3
g27
sg5
Vie
p1496
sg7
Vvi
p1497
sg9
tp1498
a((dp1499
g2
I01
sg3
g27
sg5
Vie
p1500
sg7
Vlo
p1501
sg30
tp1502
a((dp1503
g2
I01
sg3
g27
sg5
Vie
p1504
sg7
Vhe
p1505
sg9
tp1506
a((dp1507
g2
I01
sg3
g27
sg5
Vne
p1508
sg7
Vma
p1509
sg9
tp1510
a((dp1511
g2
I00
sg3
g83
sg5
Von
p1512
sg7
Vsa
p1513
sg30
tp1514
a((dp1515
g2
I00
sg3
g981
sg5
Vrk
p1516
sg7
Vcl
p1517
sg30
tp1518
a((dp1519
g2
I01
sg3
g4
sg5
Vla
p1520
sg7
Vgi
p1521
sg9
tp1522
a((dp1523
g2
I01
sg3
g4
sg5
Via
p1524
sg7
Vco
p1525
sg9
tp1526
a((dp1527
g2
I00
sg3
g83
sg5
Vin
p1528
sg7
Vca
p1529
sg9
tp1530
a((dp1531
g2
I00
sg3
g83
sg5
Vnn
p1532
sg7
Vfl
p1533
sg30
tp1534
a((dp1535
g2
I01
sg3
g22
sg5
Vly
p1536
sg7
Vas
p1537
sg9
tp1538
a((dp1539
g2
I01
sg3
g4
sg5
Vda
p1540
sg7
Vva
p1541
sg9
tp1542
a((dp1543
g2
I01
sg3
g4
sg5
Vna
p1544
sg7
Vgi
p1545
sg9
tp1546
a((dp1547
g2
I01
sg3
g27
sg5
Vle
p1548
sg7
Vle
p1549
sg9
tp1550
a((dp1551
g2
I01
sg3
g22
sg5
Vry
p1552
sg7
Vla
p1553
sg30
tp1554
a((dp1555
g2
I01
sg3
g4
sg5
Via
p1556
sg7
Vva
p1557
sg9
tp1558
a((dp1559
g2
I00
sg3
g125
sg5
Vld
p1560
sg7
Vha
p1561
sg30
tp1562
a((dp1563
g2
I01
sg3
g22
sg5
Vry
p1564
sg7
Vka
p1565
sg9
tp1566
a((dp1567
g2
I01
sg3
g4
sg5
Vna
p1568
sg7
Vse
p1569
sg9
tp1570
a((dp1571
g2
I00
sg3
g981
sg5
Vck
p1572
sg7
Vza
p1573
sg30
tp1574
a((dp1575
g2
I01
sg3
g27
sg5
Vee
p1576
sg7
Vbl
p1577
sg9
tp1578
a((dp1579
g2
I01
sg3
g4
sg5
Via
p1580
sg7
Vki
p1581
sg9
tp1582
a((dp1583
g2
I01
sg3
g22
sg5
Vly
p1584
sg7
Vol
p1585
sg9
tp1586
a((dp1587
g2
I00
sg3
g259
sg5
Ves
p1588
sg7
Vxe
p1589
sg30
tp1590
a((dp1591
g2
I01
sg3
g4
sg5
Vla
p1592
sg7
Vco
p1593
sg9
tp1594
a((dp1595
g2
I00
sg3
g83
sg5
Vnn
p1596
sg7
Vro
p1597
sg9
tp1598
a((dp1599
g2
I00
sg3
g695
sg5
Vic
p1600
sg7
Vfr
p1601
sg30
tp1602
a((dp1603
g2
I01
sg3
g108
sg5
Vni
p1604
sg7
Vbl
p1605
sg9
tp1606
a((dp1607
g2
I01
sg3
g27
sg5
Vte
p1608
sg7
Vta
p1609
sg30
tp1610
a((dp1611
g2
I01
sg3
g27
sg5
Vee
p1612
sg7
Vja
p1613
sg9
tp1614
a((dp1615
g2
I01
sg3
g4
sg5
Vna
p1616
sg7
Vil
p1617
sg9
tp1618
a((dp1619
g2
I01
sg3
g4
sg5
Via
p1620
sg7
Vne
p1621
sg9
tp1622
a((dp1623
g2
I01
sg3
g27
sg5
Vne
p1624
sg7
Vno
p1625
sg9
tp1626
a((dp1627
g2
I01
sg3
g4
sg5
Vla
p1628
sg7
Vro
p1629
sg9
tp1630
a((dp1631
g2
I01
sg3
g4
sg5
Vna
p1632
sg7
Vsh
p1633
sg9
tp1634
a((dp1635
g2
I00
sg3
g58
sg5
Var
p1636
sg7
Vin
p1637
sg30
tp1638
a((dp1639
g2
I00
sg3
g83
sg5
Ven
p1640
sg7
Vja
p1641
sg9
tp1642
a((dp1643
g2
I00
sg3
g125
sg5
Vrd
p1644
sg7
Vri
p1645
sg30
tp1646
a((dp1647
g2
I00
sg3
g301
sg5
Vil
p1648
sg7
Van
p1649
sg9
tp1650
a((dp1651
g2
I01
sg3
g166
sg5
Vmo
p1652
sg7
Vsh
p1653
sg30
tp1654
a((dp1655
g2
I00
sg3
g125
sg5
Vrd
p1656
sg7
Vba
p1657
sg30
tp1658
a((dp1659
g2
I00
sg3
g83
sg5
Ven
p1660
sg7
Vim
p1661
sg9
tp1662
a((dp1663
g2
I01
sg3
g4
sg5
Vna
p1664
sg7
Vke
p1665
sg9
tp1666
a((dp1667
g2
I00
sg3
g58
sg5
Vor
p1668
sg7
Vfl
p1669
sg9
tp1670
a((dp1671
g2
I01
sg3
g4
sg5
Vta
p1672
sg7
Vpa
p1673
sg9
tp1674
a((dp1675
g2
I01
sg3
g27
sg5
Vne
p1676
sg7
Vna
p1677
sg9
tp1678
a((dp1679
g2
I00
sg3
g58
sg5
Ver
p1680
sg7
Vra
p1681
sg30
tp1682
a((dp1683
g2
I00
sg3
g259
sg5
Vis
p1684
sg7
Vku
p1685
sg30
tp1686
a((dp1687
g2
I01
sg3
g4
sg5
Vta
p1688
sg7
Vma
p1689
sg9
tp1690
a((dp1691
g2
I00
sg3
g259
sg5
Vis
p1692
sg7
Vma
p1693
sg9
tp1694
a((dp1695
g2
I00
sg3
g45
sg5
Viv
p1696
sg7
Vvi
p1697
sg9
tp1698
a((dp1699
g2
I01
sg3
g4
sg5
Via
p1700
sg7
Vam
p1701
sg9
tp1702
a((dp1703
g2
I01
sg3
g4
sg5
Vna
p1704
sg7
Vmo
p1705
sg9
tp1706
a((dp1707
g2
I01
sg3
g27
sg5
Vne
p1708
sg7
Vid
p1709
sg9
tp1710
a((dp1711
g2
I01
sg3
g27
sg5
Vie
p1712
sg7
Vbe
p1713
sg9
tp1714
a((dp1715
g2
I01
sg3
g166
sg5
Voo
p1716
sg7
Vko
p1717
sg9
tp1718
a((dp1719
g2
I01
sg3
g22
sg5
Vey
p1720
sg7
Vri
p1721
sg30
tp1722
a((dp1723
g2
I00
sg3
g981
sg5
Vck
p1724
sg7
Val
p1725
sg30
tp1726
a((dp1727
g2
I00
sg3
g259
sg5
Vis
p1728
sg7
Vcr
p1729
sg9
tp1730
a((dp1731
g2
I01
sg3
g4
sg5
Vra
p1732
sg7
Vno
p1733
sg9
tp1734
a((dp1735
g2
I00
sg3
g58
sg5
Ver
p1736
sg7
Vsp
p1737
sg30
tp1738
a((dp1739
g2
I01
sg3
g27
sg5
Vie
p1740
sg7
Vbr
p1741
sg30
tp1742
a((dp1743
g2
I01
sg3
g22
sg5
Vty
p1744
sg7
Vna
p1745
sg9
tp1746
a((dp1747
g2
I00
sg3
g83
sg5
Van
p1748
sg7
Vbr
p1749
sg30
tp1750
a((dp1751
g2
I00
sg3
g695
sg5
Vic
p1752
sg7
Vdo
p1753
sg30
tp1754
a((dp1755
g2
I00
sg3
g374
sg5
Vpp
p1756
sg7
Vki
p1757
sg9
tp1758
a((dp1759
g2
I01
sg3
g4
sg5
Vra
p1760
sg7
Vfa
p1761
sg9
tp1762
a((dp1763
g2
I00
sg3
g83
sg5
Von
p1764
sg7
Vna
p1765
sg30
tp1766
a((dp1767
g2
I01
sg3
g4
sg5
Vra
p1768
sg7
Vde
p1769
sg9
tp1770
a((dp1771
g2
I01
sg3
g27
sg5
Vde
p1772
sg7
Vwa
p1773
sg30
tp1774
a((dp1775
g2
I01
sg3
g27
sg5
Vee
p1776
sg7
Vem
p1777
sg9
tp1778
a((dp1779
g2
I01
sg3
g22
sg5
Vby
p1780
sg7
Vde
p1781
sg9
tp1782
a((dp1783
g2
I01
sg3
g27
sg5
Vie
p1784
sg7
Vki
p1785
sg9
tp1786
a((dp1787
g2
I01
sg3
g4
sg5
Via
p1788
sg7
Vap
p1789
sg9
tp1790
a((dp1791
g2
I01
sg3
g166
sg5
Vlo
p1792
sg7
Vpe
p1793
sg30
tp1794
a((dp1795
g2
I01
sg3
g22
sg5
Vry
p1796
sg7
Vfl
p1797
sg9
tp1798
a((dp1799
g2
I01
sg3
g27
sg5
Vse
p1800
sg7
Val
p1801
sg30
tp1802
a((dp1803
g2
I00
sg3
g301
sg5
Vil
p1804
sg7
Vsy
p1805
sg9
tp1806
a((dp1807
g2
I00
sg3
g17
sg5
Vet
p1808
sg7
Vha
p1809
sg9
tp1810
a((dp1811
g2
I01
sg3
g4
sg5
Vya
p1812
sg7
Vta
p1813
sg9
tp1814
a((dp1815
g2
I01
sg3
g27
sg5
Vne
p1816
sg7
Vce
p1817
sg9
tp1818
a((dp1819
g2
I01
sg3
g4
sg5
Vva
p1820
sg7
Vvi
p1821
sg9
tp1822
a((dp1823
g2
I00
sg3
g17
sg5
Vet
p1824
sg7
Vbe
p1825
sg9
tp1826
a((dp1827
g2
I00
sg3
g83
sg5
Van
p1828
sg7
Vma
p1829
sg9
tp1830
a((dp1831
g2
I01
sg3
g108
sg5
Vli
p1832
sg7
Vle
p1833
sg9
tp1834
a((dp1835
g2
I01
sg3
g27
sg5
Vie
p1836
sg7
Vla
p1837
sg9
tp1838
a((dp1839
g2
I00
sg3
g83
sg5
Vyn
p1840
sg7
Vjo
p1841
sg9
tp1842
a((dp1843
g2
I00
sg3
g83
sg5
Vnn
p1844
sg7
Vpe
p1845
sg30
tp1846
a((dp1847
g2
I01
sg3
g27
sg5
Vle
p1848
sg7
Vca
p1849
sg9
tp1850
a((dp1851
g2
I01
sg3
g27
sg5
Vie
p1852
sg7
Vfa
p1853
sg9
tp1854
a((dp1855
g2
I01
sg3
g4
sg5
Vma
p1856
sg7
Vna
p1857
sg9
tp1858
a((dp1859
g2
I00
sg3
g83
sg5
Vnn
p1860
sg7
Vke
p1861
sg9
tp1862
a((dp1863
g2
I01
sg3
g27
sg5
Vie
p1864
sg7
Vai
p1865
sg9
tp1866
a((dp1867
g2
I00
sg3
g125
sg5
Vld
p1868
sg7
Vga
p1869
sg30
tp1870
a((dp1871
g2
I01
sg3
g22
sg5
Vsy
p1872
sg7
Vta
p1873
sg9
tp1874
a((dp1875
g2
I01
sg3
g4
sg5
Vza
p1876
sg7
Val
p1877
sg9
tp1878
a((dp1879
g2
I01
sg3
g27
sg5
Vie
p1880
sg7
Vbl
p1881
sg9
tp1882
a((dp1883
g2
I01
sg3
g27
sg5
Vee
p1884
sg7
Vme
p1885
sg9
tp1886
a((dp1887
g2
I01
sg3
g22
sg5
Vdy
p1888
sg7
Vpr
p1889
sg9
tp1890
a((dp1891
g2
I01
sg3
Vu
p1892
sg5
Veu
p1893
sg7
Vma
p1894
sg30
tp1895
a((dp1896
g2
I00
sg3
g301
sg5
Vll
p1897
sg7
Vjo
p1898
sg9
tp1899
a((dp1900
g2
I00
sg3
g272
sg5
Vum
p1901
sg7
Vma
p1902
sg30
tp1903
a((dp1904
g2
I00
sg3
g83
sg5
Vin
p1905
sg7
Vth
p1906
sg30
tp1907
a((dp1908
g2
I00
sg3
g12
sg5
Vah
p1909
sg7
Vzo
p1910
sg9
tp1911
a((dp1912
g2
I01
sg3
g4
sg5
Vna
p1913
sg7
Vgu
p1914
sg9
tp1915
a((dp1916
g2
I00
sg3
g83
sg5
Vin
p1917
sg7
Vjo
p1918
sg9
tp1919
a((dp1920
g2
I01
sg3
g4
sg5
Vna
p1921
sg7
Vmi
p1922
sg9
tp1923
a((dp1924
g2
I01
sg3
g4
sg5
Vda
p1925
sg7
Vfl
p1926
sg9
tp1927
a((dp1928
g2
I01
sg3
g27
sg5
Vne
p1929
sg7
Vme
p1930
sg9
tp1931
a((dp1932
g2
I00
sg3
g259
sg5
Vus
p1933
sg7
Vma
p1934
sg30
tp1935
a((dp1936
g2
I00
sg3
g125
sg5
Ved
p1937
sg7
Vza
p1938
sg30
tp1939
a((dp1940
g2
I01
sg3
g22
sg5
Vdy
p1941
sg7
Vca
p1942
sg9
tp1943
a((dp1944
g2
I01
sg3
g27
sg5
Vbe
p1945
sg7
Vto
p1946
sg9
tp1947
a((dp1948
g2
I01
sg3
g27
sg5
Vie
p1949
sg7
Vsi
p1950
sg9
tp1951
a((dp1952
g2
I00
sg3
g17
sg5
Vet
p1953
sg7
Vel
p1954
sg9
tp1955
a((dp1956
g2
I01
sg3
g27
sg5
Vde
p1957
sg7
Vma
p1958
sg9
tp1959
a((dp1960
g2
I01
sg3
g22
sg5
Vly
p1961
sg7
Vta
p1962
sg9
tp1963
a((dp1964
g2
I01
sg3
g4
sg5
Vna
p1965
sg7
Vel
p1966
sg9
tp1967
a((dp1968
g2
I01
sg3
g27
sg5
Vce
p1969
sg7
Van
p1970
sg9
tp1971
a((dp1972
g2
I01
sg3
g27
sg5
Vne
p1973
sg7
Vst
p1974
sg9
tp1975
a((dp1976
g2
I00
sg3
g83
sg5
Von
p1977
sg7
Vda
p1978
sg30
tp1979
a((dp1980
g2
I01
sg3
g27
sg5
Vle
p1981
sg7
Vka
p1982
sg9
tp1983
a((dp1984
g2
I01
sg3
g166
sg5
Vdo
p1985
sg7
Ved
p1986
sg30
tp1987
a((dp1988
g2
I01
sg3
g22
sg5
Vny
p1989
sg7
Vva
p1990
sg9
tp1991
a((dp1992
g2
I00
sg3
g301
sg5
Vel
p1993
sg7
Vca
p1994
sg9
tp1995
a((dp1996
g2
I01
sg3
g27
sg5
Vee
p1997
sg7
Vai
p1998
sg9
tp1999
a((dp2000
g2
I01
sg3
g22
sg5
Vmy
p2001
sg7
Vem
p2002
sg9
tp2003
a((dp2004
g2
I01
sg3
g27
sg5
Vfe
p2005
sg7
Vra
p2006
sg30
tp2007
a((dp2008
g2
I01
sg3
g4
sg5
Vna
p2009
sg7
Vbr
p2010
sg9
tp2011
a((dp2012
g2
I01
sg3
g27
sg5
Vpe
p2013
sg7
Vgi
p2014
sg30
tp2015
a((dp2016
g2
I01
sg3
g27
sg5
Vne
p2017
sg7
Vai
p2018
sg9
tp2019
a((dp2020
g2
I01
sg3
g4
sg5
Vca
p2021
sg7
Vje
p2022
sg9
tp2023
a((dp2024
g2
I01
sg3
g27
sg5
Vle
p2025
sg7
Vod
p2026
sg9
tp2027
a.